target datalayout = "e-m:e-p270:32:32-p271:32:32-p272:64:64-i64:64-i128:128-f80:128-n8:16:32:64-S128"
target triple = "x86_64-pc-linux-gnu"

%struct.RegionData = type { %struct.SurfaceDataBounds, i32, ptr, i32, i32, ptr }
%struct.SurfaceDataBounds = type { i32, i32, i32, i32 }

; Function Attrs: nounwind uwtable
define i32 @Region_NextIteration(ptr noundef %0, ptr noundef %1) #0 {
  %3 = alloca i32, align 4
  %4 = alloca ptr, align 8
  %5 = alloca ptr, align 8
  %6 = alloca i32, align 4
  %7 = alloca ptr, align 8
  %8 = alloca i32, align 4
  %9 = alloca i32, align 4
  %10 = alloca i32, align 4
  store ptr %0, ptr %4, align 8
  store ptr %1, ptr %5, align 8
  %11 = load ptr, ptr %4, align 8
  %12 = getelementptr inbounds %struct.RegionData, ptr %11, i32 0, i32 3
  %13 = load i32, ptr %12, align 8
  store i32 %13, ptr %6, align 4
  %14 = load ptr, ptr %4, align 8
  %15 = getelementptr inbounds %struct.RegionData, ptr %14, i32 0, i32 1
  %16 = load i32, ptr %15, align 8
  %17 = icmp eq i32 %16, 0
  br i1 %17, label %18, label %67

18:                                               ; preds = %2
  %19 = load i32, ptr %6, align 4
  %20 = icmp sgt i32 %19, 0
  br i1 %20, label %41, label %21

21:                                               ; preds = %18
  %22 = load ptr, ptr %4, align 8
  %23 = getelementptr inbounds %struct.RegionData, ptr %22, i32 0, i32 0
  %24 = getelementptr inbounds %struct.SurfaceDataBounds, ptr %23, i32 0, i32 0
  %25 = load i32, ptr %24, align 8
  %26 = load ptr, ptr %4, align 8
  %27 = getelementptr inbounds %struct.RegionData, ptr %26, i32 0, i32 0
  %28 = getelementptr inbounds %struct.SurfaceDataBounds, ptr %27, i32 0, i32 2
  %29 = load i32, ptr %28, align 8
  %30 = icmp sge i32 %25, %29
  br i1 %30, label %41, label %31

31:                                               ; preds = %21
  %32 = load ptr, ptr %4, align 8
  %33 = getelementptr inbounds %struct.RegionData, ptr %32, i32 0, i32 0
  %34 = getelementptr inbounds %struct.SurfaceDataBounds, ptr %33, i32 0, i32 1
  %35 = load i32, ptr %34, align 4
  %36 = load ptr, ptr %4, align 8
  %37 = getelementptr inbounds %struct.RegionData, ptr %36, i32 0, i32 0
  %38 = getelementptr inbounds %struct.SurfaceDataBounds, ptr %37, i32 0, i32 3
  %39 = load i32, ptr %38, align 4
  %40 = icmp sge i32 %35, %39
  br i1 %40, label %41, label %42

41:                                               ; preds = %31, %21, %18
  store i32 0, ptr %3, align 4
  br label %220

42:                                               ; preds = %31
  %43 = load ptr, ptr %4, align 8
  %44 = getelementptr inbounds %struct.RegionData, ptr %43, i32 0, i32 0
  %45 = getelementptr inbounds %struct.SurfaceDataBounds, ptr %44, i32 0, i32 0
  %46 = load i32, ptr %45, align 8
  %47 = load ptr, ptr %5, align 8
  %48 = getelementptr inbounds %struct.SurfaceDataBounds, ptr %47, i32 0, i32 0
  store i32 %46, ptr %48, align 4
  %49 = load ptr, ptr %4, align 8
  %50 = getelementptr inbounds %struct.RegionData, ptr %49, i32 0, i32 0
  %51 = getelementptr inbounds %struct.SurfaceDataBounds, ptr %50, i32 0, i32 2
  %52 = load i32, ptr %51, align 8
  %53 = load ptr, ptr %5, align 8
  %54 = getelementptr inbounds %struct.SurfaceDataBounds, ptr %53, i32 0, i32 2
  store i32 %52, ptr %54, align 4
  %55 = load ptr, ptr %4, align 8
  %56 = getelementptr inbounds %struct.RegionData, ptr %55, i32 0, i32 0
  %57 = getelementptr inbounds %struct.SurfaceDataBounds, ptr %56, i32 0, i32 1
  %58 = load i32, ptr %57, align 4
  %59 = load ptr, ptr %5, align 8
  %60 = getelementptr inbounds %struct.SurfaceDataBounds, ptr %59, i32 0, i32 1
  store i32 %58, ptr %60, align 4
  %61 = load ptr, ptr %4, align 8
  %62 = getelementptr inbounds %struct.RegionData, ptr %61, i32 0, i32 0
  %63 = getelementptr inbounds %struct.SurfaceDataBounds, ptr %62, i32 0, i32 3
  %64 = load i32, ptr %63, align 4
  %65 = load ptr, ptr %5, align 8
  %66 = getelementptr inbounds %struct.SurfaceDataBounds, ptr %65, i32 0, i32 3
  store i32 %64, ptr %66, align 4
  store i32 1, ptr %6, align 4
  br label %216

67:                                               ; preds = %2
  %68 = load ptr, ptr %4, align 8
  %69 = getelementptr inbounds %struct.RegionData, ptr %68, i32 0, i32 5
  %70 = load ptr, ptr %69, align 8
  store ptr %70, ptr %7, align 8
  %71 = load ptr, ptr %4, align 8
  %72 = getelementptr inbounds %struct.RegionData, ptr %71, i32 0, i32 4
  %73 = load i32, ptr %72, align 4
  store i32 %73, ptr %10, align 4
  br label %74

74:                                               ; preds = %211, %171, %138, %67
  %75 = load i32, ptr %10, align 4
  %76 = icmp sle i32 %75, 0
  br i1 %76, label %77, label %150

77:                                               ; preds = %74
  %78 = load i32, ptr %6, align 4
  %79 = load ptr, ptr %4, align 8
  %80 = getelementptr inbounds %struct.RegionData, ptr %79, i32 0, i32 1
  %81 = load i32, ptr %80, align 8
  %82 = icmp sge i32 %78, %81
  br i1 %82, label %83, label %84

83:                                               ; preds = %77
  store i32 0, ptr %3, align 4
  br label %220

84:                                               ; preds = %77
  %85 = load ptr, ptr %7, align 8
  %86 = load i32, ptr %6, align 4
  %87 = add nsw i32 %86, 1
  store i32 %87, ptr %6, align 4
  %88 = sext i32 %86 to i64
  %89 = getelementptr inbounds i32, ptr %85, i64 %88
  %90 = load i32, ptr %89, align 4
  store i32 %90, ptr %8, align 4
  %91 = load i32, ptr %8, align 4
  %92 = load ptr, ptr %4, align 8
  %93 = getelementptr inbounds %struct.RegionData, ptr %92, i32 0, i32 0
  %94 = getelementptr inbounds %struct.SurfaceDataBounds, ptr %93, i32 0, i32 3
  %95 = load i32, ptr %94, align 4
  %96 = icmp sge i32 %91, %95
  br i1 %96, label %97, label %98

97:                                               ; preds = %84
  store i32 0, ptr %3, align 4
  br label %220

98:                                               ; preds = %84
  %99 = load i32, ptr %8, align 4
  %100 = load ptr, ptr %4, align 8
  %101 = getelementptr inbounds %struct.RegionData, ptr %100, i32 0, i32 0
  %102 = getelementptr inbounds %struct.SurfaceDataBounds, ptr %101, i32 0, i32 1
  %103 = load i32, ptr %102, align 4
  %104 = icmp slt i32 %99, %103
  br i1 %104, label %105, label %110

105:                                              ; preds = %98
  %106 = load ptr, ptr %4, align 8
  %107 = getelementptr inbounds %struct.RegionData, ptr %106, i32 0, i32 0
  %108 = getelementptr inbounds %struct.SurfaceDataBounds, ptr %107, i32 0, i32 1
  %109 = load i32, ptr %108, align 4
  store i32 %109, ptr %8, align 4
  br label %110

110:                                              ; preds = %105, %98
  %111 = load ptr, ptr %7, align 8
  %112 = load i32, ptr %6, align 4
  %113 = add nsw i32 %112, 1
  store i32 %113, ptr %6, align 4
  %114 = sext i32 %112 to i64
  %115 = getelementptr inbounds i32, ptr %111, i64 %114
  %116 = load i32, ptr %115, align 4
  store i32 %116, ptr %9, align 4
  %117 = load ptr, ptr %7, align 8
  %118 = load i32, ptr %6, align 4
  %119 = add nsw i32 %118, 1
  store i32 %119, ptr %6, align 4
  %120 = sext i32 %118 to i64
  %121 = getelementptr inbounds i32, ptr %117, i64 %120
  %122 = load i32, ptr %121, align 4
  store i32 %122, ptr %10, align 4
  %123 = load i32, ptr %9, align 4
  %124 = load ptr, ptr %4, align 8
  %125 = getelementptr inbounds %struct.RegionData, ptr %124, i32 0, i32 0
  %126 = getelementptr inbounds %struct.SurfaceDataBounds, ptr %125, i32 0, i32 3
  %127 = load i32, ptr %126, align 4
  %128 = icmp sgt i32 %123, %127
  br i1 %128, label %129, label %134

129:                                              ; preds = %110
  %130 = load ptr, ptr %4, align 8
  %131 = getelementptr inbounds %struct.RegionData, ptr %130, i32 0, i32 0
  %132 = getelementptr inbounds %struct.SurfaceDataBounds, ptr %131, i32 0, i32 3
  %133 = load i32, ptr %132, align 4
  store i32 %133, ptr %9, align 4
  br label %134

134:                                              ; preds = %129, %110
  %135 = load i32, ptr %9, align 4
  %136 = load i32, ptr %8, align 4
  %137 = icmp sle i32 %135, %136
  br i1 %137, label %138, label %143

138:                                              ; preds = %134
  %139 = load i32, ptr %10, align 4
  %140 = mul nsw i32 %139, 2
  %141 = load i32, ptr %6, align 4
  %142 = add nsw i32 %141, %140
  store i32 %142, ptr %6, align 4
  store i32 0, ptr %10, align 4
  br label %74

143:                                              ; preds = %134
  %144 = load i32, ptr %8, align 4
  %145 = load ptr, ptr %5, align 8
  %146 = getelementptr inbounds %struct.SurfaceDataBounds, ptr %145, i32 0, i32 1
  store i32 %144, ptr %146, align 4
  %147 = load i32, ptr %9, align 4
  %148 = load ptr, ptr %5, align 8
  %149 = getelementptr inbounds %struct.SurfaceDataBounds, ptr %148, i32 0, i32 3
  store i32 %147, ptr %149, align 4
  br label %150

150:                                              ; preds = %143, %74
  %151 = load ptr, ptr %7, align 8
  %152 = load i32, ptr %6, align 4
  %153 = add nsw i32 %152, 1
  store i32 %153, ptr %6, align 4
  %154 = sext i32 %152 to i64
  %155 = getelementptr inbounds i32, ptr %151, i64 %154
  %156 = load i32, ptr %155, align 4
  store i32 %156, ptr %8, align 4
  %157 = load ptr, ptr %7, align 8
  %158 = load i32, ptr %6, align 4
  %159 = add nsw i32 %158, 1
  store i32 %159, ptr %6, align 4
  %160 = sext i32 %158 to i64
  %161 = getelementptr inbounds i32, ptr %157, i64 %160
  %162 = load i32, ptr %161, align 4
  store i32 %162, ptr %9, align 4
  %163 = load i32, ptr %10, align 4
  %164 = add nsw i32 %163, -1
  store i32 %164, ptr %10, align 4
  %165 = load i32, ptr %8, align 4
  %166 = load ptr, ptr %4, align 8
  %167 = getelementptr inbounds %struct.RegionData, ptr %166, i32 0, i32 0
  %168 = getelementptr inbounds %struct.SurfaceDataBounds, ptr %167, i32 0, i32 2
  %169 = load i32, ptr %168, align 8
  %170 = icmp sge i32 %165, %169
  br i1 %170, label %171, label %176

171:                                              ; preds = %150
  %172 = load i32, ptr %10, align 4
  %173 = mul nsw i32 %172, 2
  %174 = load i32, ptr %6, align 4
  %175 = add nsw i32 %174, %173
  store i32 %175, ptr %6, align 4
  store i32 0, ptr %10, align 4
  br label %74

176:                                              ; preds = %150
  %177 = load i32, ptr %8, align 4
  %178 = load ptr, ptr %4, align 8
  %179 = getelementptr inbounds %struct.RegionData, ptr %178, i32 0, i32 0
  %180 = getelementptr inbounds %struct.SurfaceDataBounds, ptr %179, i32 0, i32 0
  %181 = load i32, ptr %180, align 8
  %182 = icmp slt i32 %177, %181
  br i1 %182, label %183, label %188

183:                                              ; preds = %176
  %184 = load ptr, ptr %4, align 8
  %185 = getelementptr inbounds %struct.RegionData, ptr %184, i32 0, i32 0
  %186 = getelementptr inbounds %struct.SurfaceDataBounds, ptr %185, i32 0, i32 0
  %187 = load i32, ptr %186, align 8
  store i32 %187, ptr %8, align 4
  br label %188

188:                                              ; preds = %183, %176
  %189 = load i32, ptr %9, align 4
  %190 = load ptr, ptr %4, align 8
  %191 = getelementptr inbounds %struct.RegionData, ptr %190, i32 0, i32 0
  %192 = getelementptr inbounds %struct.SurfaceDataBounds, ptr %191, i32 0, i32 2
  %193 = load i32, ptr %192, align 8
  %194 = icmp sgt i32 %189, %193
  br i1 %194, label %195, label %200

195:                                              ; preds = %188
  %196 = load ptr, ptr %4, align 8
  %197 = getelementptr inbounds %struct.RegionData, ptr %196, i32 0, i32 0
  %198 = getelementptr inbounds %struct.SurfaceDataBounds, ptr %197, i32 0, i32 2
  %199 = load i32, ptr %198, align 8
  store i32 %199, ptr %9, align 4
  br label %200

200:                                              ; preds = %195, %188
  %201 = load i32, ptr %9, align 4
  %202 = load i32, ptr %8, align 4
  %203 = icmp sgt i32 %201, %202
  br i1 %203, label %204, label %211

204:                                              ; preds = %200
  %205 = load i32, ptr %8, align 4
  %206 = load ptr, ptr %5, align 8
  %207 = getelementptr inbounds %struct.SurfaceDataBounds, ptr %206, i32 0, i32 0
  store i32 %205, ptr %207, align 4
  %208 = load i32, ptr %9, align 4
  %209 = load ptr, ptr %5, align 8
  %210 = getelementptr inbounds %struct.SurfaceDataBounds, ptr %209, i32 0, i32 2
  store i32 %208, ptr %210, align 4
  br label %212

211:                                              ; preds = %200
  br label %74

212:                                              ; preds = %204
  %213 = load i32, ptr %10, align 4
  %214 = load ptr, ptr %4, align 8
  %215 = getelementptr inbounds %struct.RegionData, ptr %214, i32 0, i32 4
  store i32 %213, ptr %215, align 4
  br label %216

216:                                              ; preds = %212, %42
  %217 = load i32, ptr %6, align 4
  %218 = load ptr, ptr %4, align 8
  %219 = getelementptr inbounds %struct.RegionData, ptr %218, i32 0, i32 3
  store i32 %217, ptr %219, align 8
  store i32 1, ptr %3, align 4
  br label %220

220:                                              ; preds = %216, %97, %83, %41
  %221 = load i32, ptr %3, align 4
  ret i32 %221
}