; Function Attrs: nofree norecurse nosync nounwind memory(read, argmem: readwrite, inaccessiblemem: none) uwtable
define range(i32 0, 2) i32 @Region_NextIteration(ptr nocapture noundef %0, ptr nocapture noundef writeonly %1) local_unnamed_addr #2 {
  %3 = getelementptr inbounds i8, ptr %0, i64 32
  %4 = load i32, ptr %3, align 8
  %5 = getelementptr inbounds i8, ptr %0, i64 16
  %6 = load i32, ptr %5, align 8
  %7 = icmp eq i32 %6, 0
  br i1 %7, label %8, label %26

8:                                                ; preds = %2
  %9 = icmp sgt i32 %4, 0
  br i1 %9, label %.loopexit, label %10

10:                                               ; preds = %8
  %11 = load i32, ptr %0, align 8
  %12 = getelementptr inbounds i8, ptr %0, i64 8
  %13 = load i32, ptr %12, align 8
  %.not86 = icmp slt i32 %11, %13
  br i1 %.not86, label %14, label %.loopexit

14:                                               ; preds = %10
  %15 = getelementptr inbounds i8, ptr %0, i64 4
  %16 = load i32, ptr %15, align 4
  %17 = getelementptr inbounds i8, ptr %0, i64 12
  %18 = load i32, ptr %17, align 4
  %.not87 = icmp slt i32 %16, %18
  br i1 %.not87, label %19, label %.loopexit

19:                                               ; preds = %14
  store i32 %11, ptr %1, align 4
  %20 = load i32, ptr %12, align 8
  %21 = getelementptr inbounds i8, ptr %1, i64 8
  store i32 %20, ptr %21, align 4
  %22 = load i32, ptr %15, align 4
  %23 = getelementptr inbounds i8, ptr %1, i64 4
  store i32 %22, ptr %23, align 4
  %24 = load i32, ptr %17, align 4
  %25 = getelementptr inbounds i8, ptr %1, i64 12
  store i32 %24, ptr %25, align 4
  br label %72

26:                                               ; preds = %2
  %27 = getelementptr inbounds i8, ptr %0, i64 40
  %28 = load ptr, ptr %27, align 8
  %29 = getelementptr inbounds i8, ptr %0, i64 36
  %30 = load i32, ptr %29, align 4
  %31 = getelementptr inbounds i8, ptr %0, i64 12
  %32 = getelementptr inbounds i8, ptr %0, i64 4
  %33 = getelementptr inbounds i8, ptr %1, i64 4
  %34 = getelementptr inbounds i8, ptr %1, i64 12
  %35 = getelementptr inbounds i8, ptr %0, i64 8
  br label %.backedge

.backedge:                                        ; preds = %.backedge.backedge, %26
  %.072 = phi i32 [ %4, %26 ], [ %.072.be, %.backedge.backedge ]
  %.0 = phi i32 [ %30, %26 ], [ %.0.be, %.backedge.backedge ]
  %36 = icmp slt i32 %.0, 1
  br i1 %36, label %37, label %55

37:                                               ; preds = %.backedge
  %38 = load i32, ptr %5, align 8
  %.not = icmp slt i32 %.072, %38
  br i1 %.not, label %39, label %.loopexit

39:                                               ; preds = %37
  %40 = sext i32 %.072 to i64
  %41 = getelementptr inbounds i32, ptr %28, i64 %40
  %42 = load i32, ptr %41, align 4
  %43 = load i32, ptr %31, align 4
  %.not83 = icmp slt i32 %42, %43
  br i1 %.not83, label %44, label %.loopexit

44:                                               ; preds = %39
  %45 = load i32, ptr %32, align 4
  %spec.select = tail call i32 @llvm.smax.i32(i32 %42, i32 %45)
  %46 = getelementptr i8, ptr %41, i64 4
  %47 = load i32, ptr %46, align 4
  %48 = add nsw i32 %.072, 3
  %49 = getelementptr i8, ptr %41, i64 8
  %50 = load i32, ptr %49, align 4
  %.067 = tail call i32 @llvm.smin.i32(i32 %47, i32 %43)
  %.not84 = icmp sgt i32 %.067, %spec.select
  br i1 %.not84, label %54, label %51

51:                                               ; preds = %44
  %52 = shl nsw i32 %50, 1
  %53 = add nsw i32 %52, %48
  br label %.backedge.backedge

.backedge.backedge:                               ; preds = %51, %62, %65
  %.072.be = phi i32 [ %53, %51 ], [ %64, %62 ], [ %59, %65 ]
  %.0.be = phi i32 [ 0, %51 ], [ 0, %62 ], [ %60, %65 ]
  br label %.backedge

54:                                               ; preds = %44
  store i32 %spec.select, ptr %33, align 4
  store i32 %.067, ptr %34, align 4
  br label %55

55:                                               ; preds = %54, %.backedge
  %.173 = phi i32 [ %48, %54 ], [ %.072, %.backedge ]
  %.1 = phi i32 [ %50, %54 ], [ %.0, %.backedge ]
  %56 = sext i32 %.173 to i64
  %57 = getelementptr inbounds i32, ptr %28, i64 %56
  %58 = load i32, ptr %57, align 4
  %59 = add nsw i32 %.173, 2
  %60 = add nsw i32 %.1, -1
  %61 = load i32, ptr %35, align 8
  %.not85 = icmp slt i32 %58, %61
  br i1 %.not85, label %65, label %62

62:                                               ; preds = %55
  %63 = shl nsw i32 %60, 1
  %64 = add nsw i32 %63, %59
  br label %.backedge.backedge

65:                                               ; preds = %55
  %66 = getelementptr i8, ptr %57, i64 4
  %67 = load i32, ptr %66, align 4
  %68 = load i32, ptr %0, align 8
  %spec.select88 = tail call i32 @llvm.smax.i32(i32 %58, i32 %68)
  %.168 = tail call i32 @llvm.smin.i32(i32 %67, i32 %61)
  %69 = icmp sgt i32 %.168, %spec.select88
  br i1 %69, label %70, label %.backedge.backedge

70:                                               ; preds = %65
  store i32 %spec.select88, ptr %1, align 4
  %71 = getelementptr inbounds i8, ptr %1, i64 8
  store i32 %.168, ptr %71, align 4
  store i32 %60, ptr %29, align 4
  br label %72

72:                                               ; preds = %70, %19
  %.2 = phi i32 [ 1, %19 ], [ %59, %70 ]
  store i32 %.2, ptr %3, align 8
  br label %.loopexit

.loopexit:                                        ; preds = %39, %37, %8, %10, %14, %72
  %.071 = phi i32 [ 1, %72 ], [ 0, %14 ], [ 0, %10 ], [ 0, %8 ], [ 0, %37 ], [ 0, %39 ]
  ret i32 %.071
}